target datalayout = "e-m:e-p270:32:32-p271:32:32-p272:64:64-i64:64-i128:128-f80:128-n8:16:32:64-S128"
target triple = "x86_64-pc-linux-gnu"

%struct.ItemPointerData = type { %struct.BlockIdData, i16 }
%struct.BlockIdData = type { i16, i16 }
%struct.TupleDescData = type { i32, i32, i32, i32, ptr, [0 x %struct.CompactAttribute] }
%struct.CompactAttribute = type { i32, i16, i8, i8, i8, i8, i8, i8, i8 }
%struct.anon = type { i32, [0 x i8] }
%struct.HeapTupleHeaderData = type { %union.anon, %struct.ItemPointerData, i16, i16, i8, [0 x i8] }
%union.anon = type { %struct.HeapTupleFields }
%struct.HeapTupleFields = type { i32, i32, %union.anon.0 }
%union.anon.0 = type { i32 }
%struct.DatumTupleFields = type { i32, i32, i32 }

; Function Attrs: inlinehint nounwind uwtable
define internal i32 @HeapTupleHeaderGetDatumLength(ptr noundef %0) #4 {
  %2 = alloca ptr, align 8
  store ptr %0, ptr %2, align 8
  %3 = load ptr, ptr %2, align 8
  %4 = getelementptr inbounds nuw %struct.anon, ptr %3, i32 0, i32 0
  %5 = load i32, ptr %4, align 4
  %6 = lshr i32 %5, 2
  %7 = and i32 %6, 1073741823
  ret i32 %7
}

; Function Attrs: inlinehint nounwind uwtable
define internal i32 @HeapTupleHeaderGetTypMod(ptr noundef %0) #4 {
  %2 = alloca ptr, align 8
  store ptr %0, ptr %2, align 8
  %3 = load ptr, ptr %2, align 8
  %4 = getelementptr inbounds nuw %struct.HeapTupleHeaderData, ptr %3, i32 0, i32 0
  %5 = getelementptr inbounds nuw %struct.DatumTupleFields, ptr %4, i32 0, i32 1
  %6 = load i32, ptr %5, align 4
  ret i32 %6
}

; Function Attrs: inlinehint nounwind uwtable
define internal i32 @HeapTupleHeaderGetTypeId(ptr noundef %0) #4 {
  %2 = alloca ptr, align 8
  store ptr %0, ptr %2, align 8
  %3 = load ptr, ptr %2, align 8
  %4 = getelementptr inbounds nuw %struct.HeapTupleHeaderData, ptr %3, i32 0, i32 0
  %5 = getelementptr inbounds nuw %struct.DatumTupleFields, ptr %4, i32 0, i32 2
  %6 = load i32, ptr %5, align 4
  ret i32 %6
}

; Function Attrs: inlinehint nounwind uwtable
define internal i64 @PointerGetDatum(ptr noundef %0) #4 {
  %2 = alloca ptr, align 8
  store ptr %0, ptr %2, align 8
  %3 = load ptr, ptr %2, align 8
  %4 = ptrtoint ptr %3 to i64
  ret i64 %4
}

; Function Attrs: nounwind uwtable
define dso_local i64 @HeapTupleHeaderGetDatum(ptr noundef %0) #0 {
  %2 = alloca i64, align 8
  %3 = alloca ptr, align 8
  %4 = alloca i64, align 8
  %5 = alloca ptr, align 8
  %6 = alloca i32, align 4
  store ptr %0, ptr %3, align 8
  call void @llvm.lifetime.start.p0(i64 8, ptr %4) #10
  call void @llvm.lifetime.start.p0(i64 8, ptr %5) #10
  %7 = load ptr, ptr %3, align 8
  %8 = getelementptr inbounds nuw %struct.HeapTupleHeaderData, ptr %7, i32 0, i32 3
  %9 = load i16, ptr %8, align 4
  %10 = zext i16 %9 to i32
  %11 = and i32 %10, 4
  %12 = icmp ne i32 %11, 0
  br i1 %12, label %16, label %13

13:                                               ; preds = %1
  %14 = load ptr, ptr %3, align 8
  %15 = call i64 @PointerGetDatum(ptr noundef %14)
  store i64 %15, ptr %2, align 8
  store i32 1, ptr %6, align 4
  br label %38

16:                                               ; preds = %1
  %17 = load ptr, ptr %3, align 8
  %18 = call i32 @HeapTupleHeaderGetTypeId(ptr noundef %17)
  %19 = load ptr, ptr %3, align 8
  %20 = call i32 @HeapTupleHeaderGetTypMod(ptr noundef %19)
  %21 = call ptr @lookup_rowtype_tupdesc(i32 noundef %18, i32 noundef %20)
  store ptr %21, ptr %5, align 8
  %22 = load ptr, ptr %3, align 8
  %23 = load ptr, ptr %3, align 8
  %24 = call i32 @HeapTupleHeaderGetDatumLength(ptr noundef %23)
  %25 = load ptr, ptr %5, align 8
  %26 = call i64 @toast_flatten_tuple_to_datum(ptr noundef %22, i32 noundef %24, ptr noundef %25)
  store i64 %26, ptr %4, align 8
  br label %27

27:                                               ; preds = %16
  %28 = load ptr, ptr %5, align 8
  %29 = getelementptr inbounds nuw %struct.TupleDescData, ptr %28, i32 0, i32 3
  %30 = load i32, ptr %29, align 4
  %31 = icmp sge i32 %30, 0
  br i1 %31, label %32, label %34

32:                                               ; preds = %27
  %33 = load ptr, ptr %5, align 8
  call void @DecrTupleDescRefCount(ptr noundef %33)
  br label %34

34:                                               ; preds = %32, %27
  br label %35

35:                                               ; preds = %34
  br label %36

36:                                               ; preds = %35
  %37 = load i64, ptr %4, align 8
  store i64 %37, ptr %2, align 8
  store i32 1, ptr %6, align 4
  br label %38

38:                                               ; preds = %36, %13
  call void @llvm.lifetime.end.p0(i64 8, ptr %5) #10
  call void @llvm.lifetime.end.p0(i64 8, ptr %4) #10
  %39 = load i64, ptr %2, align 8
  ret i64 %39
}