; Function Attrs: nounwind uwtable
define dso_local i64 @HeapTupleHeaderGetDatum(ptr noundef %0) local_unnamed_addr #1 {
  %2 = getelementptr inbounds nuw i8, ptr %0, i64 20
  %3 = load i16, ptr %2, align 4
  %4 = and i16 %3, 4
  %.not = icmp eq i16 %4, 0
  br i1 %.not, label %5, label %7

5:                                                ; preds = %1
  %6 = ptrtoint ptr %0 to i64
  br label %17

7:                                                ; preds = %1
  %8 = getelementptr i8, ptr %0, i64 8
  %.val10 = load i32, ptr %8, align 4
  %9 = getelementptr i8, ptr %0, i64 4
  %.val11 = load i32, ptr %9, align 4
  %10 = tail call ptr @lookup_rowtype_tupdesc(i32 noundef %.val10, i32 noundef %.val11) #14
  %.val = load i32, ptr %0, align 4
  %11 = lshr i32 %.val, 2
  %12 = tail call i64 @toast_flatten_tuple_to_datum(ptr noundef nonnull %0, i32 noundef %11, ptr noundef %10) #14
  %13 = getelementptr inbounds nuw i8, ptr %10, i64 12
  %14 = load i32, ptr %13, align 4
  %15 = icmp sgt i32 %14, -1
  br i1 %15, label %16, label %17

16:                                               ; preds = %7
  tail call void @DecrTupleDescRefCount(ptr noundef nonnull %10) #14
  br label %17

17:                                               ; preds = %7, %16, %5
  %.0 = phi i64 [ %6, %5 ], [ %12, %16 ], [ %12, %7 ]
  ret i64 %.0
}